target datalayout = "e-m:e-p270:32:32-p271:32:32-p272:64:64-i64:64-i128:128-f80:128-n8:16:32:64-S128"
target triple = "x86_64-pc-linux-gnu"

%struct.EVP_AES_HMAC_SHA1 = type { %struct.aes_key_st, %struct.SHAstate_st, %struct.SHAstate_st, %struct.SHAstate_st, i64, %union.anon }
%struct.aes_key_st = type { [60 x i32], i32 }
%struct.SHAstate_st = type { i32, i32, i32, i32, i32, i32, i32, [16 x i32], i32 }
%union.anon = type { i32, [12 x i8] }

@.str = private unnamed_addr constant [44 x i8] c"../openssl/crypto/evp/e_aes_cbc_hmac_sha1.c\00", align 1
@__func__.aesni_cbc_hmac_sha1_init_key = private unnamed_addr constant [29 x i8] c"aesni_cbc_hmac_sha1_init_key\00", align 1

; Function Attrs: nounwind uwtable
define internal i32 @aesni_cbc_hmac_sha1_init_key(ptr noundef %0, ptr noundef %1, ptr noundef %2, i32 noundef %3) #0 {
  %5 = alloca i32, align 4
  %6 = alloca ptr, align 8
  %7 = alloca ptr, align 8
  %8 = alloca ptr, align 8
  %9 = alloca i32, align 4
  %10 = alloca ptr, align 8
  %11 = alloca i32, align 4
  %12 = alloca i32, align 4
  %13 = alloca i32, align 4
  store ptr %0, ptr %6, align 8, !tbaa !7
  store ptr %1, ptr %7, align 8, !tbaa !10
  store ptr %2, ptr %8, align 8, !tbaa !10
  store i32 %3, ptr %9, align 4, !tbaa !3
  call void @llvm.lifetime.start.p0(i64 8, ptr %10) #6
  %14 = load ptr, ptr %6, align 8, !tbaa !7
  %15 = call ptr @EVP_CIPHER_CTX_get_cipher_data(ptr noundef %14)
  store ptr %15, ptr %10, align 8, !tbaa !12
  call void @llvm.lifetime.start.p0(i64 4, ptr %11) #6
  call void @llvm.lifetime.start.p0(i64 4, ptr %12) #6
  %16 = load ptr, ptr %6, align 8, !tbaa !7
  %17 = call i32 @EVP_CIPHER_CTX_get_key_length(ptr noundef %16)
  %18 = mul nsw i32 %17, 8
  store i32 %18, ptr %12, align 4, !tbaa !3
  %19 = load i32, ptr %12, align 4, !tbaa !3
  %20 = icmp sle i32 %19, 0
  br i1 %20, label %21, label %22

21:                                               ; preds = %4
  call void @ERR_new()
  call void @ERR_set_debug(ptr noundef @.str, i32 noundef 78, ptr noundef @__func__.aesni_cbc_hmac_sha1_init_key)
  call void (i32, i32, ptr, ...) @ERR_set_error(i32 noundef 6, i32 noundef 130, ptr noundef null)
  store i32 0, ptr %5, align 4
  store i32 1, ptr %13, align 4
  br label %54

22:                                               ; preds = %4
  %23 = load i32, ptr %9, align 4, !tbaa !3
  %24 = icmp ne i32 %23, 0
  br i1 %24, label %25, label %31

25:                                               ; preds = %22
  %26 = load ptr, ptr %7, align 8, !tbaa !10
  %27 = load i32, ptr %12, align 4, !tbaa !3
  %28 = load ptr, ptr %10, align 8, !tbaa !12
  %29 = getelementptr inbounds nuw %struct.EVP_AES_HMAC_SHA1, ptr %28, i32 0, i32 0
  %30 = call i32 @aesni_set_encrypt_key(ptr noundef %26, i32 noundef %27, ptr noundef %29)
  store i32 %30, ptr %11, align 4, !tbaa !3
  br label %37

31:                                               ; preds = %22
  %32 = load ptr, ptr %7, align 8, !tbaa !10
  %33 = load i32, ptr %12, align 4, !tbaa !3
  %34 = load ptr, ptr %10, align 8, !tbaa !12
  %35 = getelementptr inbounds nuw %struct.EVP_AES_HMAC_SHA1, ptr %34, i32 0, i32 0
  %36 = call i32 @aesni_set_decrypt_key(ptr noundef %32, i32 noundef %33, ptr noundef %35)
  store i32 %36, ptr %11, align 4, !tbaa !3
  br label %37

37:                                               ; preds = %31, %25
  %38 = load ptr, ptr %10, align 8, !tbaa !12
  %39 = getelementptr inbounds nuw %struct.EVP_AES_HMAC_SHA1, ptr %38, i32 0, i32 1
  %40 = call i32 @SHA1_Init(ptr noundef %39)
  %41 = load ptr, ptr %10, align 8, !tbaa !12
  %42 = getelementptr inbounds nuw %struct.EVP_AES_HMAC_SHA1, ptr %41, i32 0, i32 2
  %43 = load ptr, ptr %10, align 8, !tbaa !12
  %44 = getelementptr inbounds nuw %struct.EVP_AES_HMAC_SHA1, ptr %43, i32 0, i32 1
  call void @llvm.memcpy.p0.p0.i64(ptr align 4 %42, ptr align 4 %44, i64 96, i1 false), !tbaa.struct !13
  %45 = load ptr, ptr %10, align 8, !tbaa !12
  %46 = getelementptr inbounds nuw %struct.EVP_AES_HMAC_SHA1, ptr %45, i32 0, i32 3
  %47 = load ptr, ptr %10, align 8, !tbaa !12
  %48 = getelementptr inbounds nuw %struct.EVP_AES_HMAC_SHA1, ptr %47, i32 0, i32 1
  call void @llvm.memcpy.p0.p0.i64(ptr align 4 %46, ptr align 4 %48, i64 96, i1 false), !tbaa.struct !13
  %49 = load ptr, ptr %10, align 8, !tbaa !12
  %50 = getelementptr inbounds nuw %struct.EVP_AES_HMAC_SHA1, ptr %49, i32 0, i32 4
  store i64 -1, ptr %50, align 8, !tbaa !15
  %51 = load i32, ptr %11, align 4, !tbaa !3
  %52 = icmp slt i32 %51, 0
  %53 = select i1 %52, i32 0, i32 1
  store i32 %53, ptr %5, align 4
  store i32 1, ptr %13, align 4
  br label %54

54:                                               ; preds = %37, %21
  call void @llvm.lifetime.end.p0(i64 4, ptr %12) #6
  call void @llvm.lifetime.end.p0(i64 4, ptr %11) #6
  call void @llvm.lifetime.end.p0(i64 8, ptr %10) #6
  %55 = load i32, ptr %5, align 4
  ret i32 %55
}