; Function Attrs: nounwind uwtable
define internal range(i32 0, 2) i32 @aesni_cbc_hmac_sha1_init_key(ptr noundef %0, ptr noundef %1, ptr readnone captures(none) %2, i32 noundef %3) #1 {
  %5 = tail call ptr @EVP_CIPHER_CTX_get_cipher_data(ptr noundef %0) #7
  %6 = tail call i32 @EVP_CIPHER_CTX_get_key_length(ptr noundef %0) #7
  %7 = shl nsw i32 %6, 3
  %8 = icmp slt i32 %6, 1
  br i1 %8, label %9, label %10

9:                                                ; preds = %4
  tail call void @ERR_new() #7
  tail call void @ERR_set_debug(ptr noundef nonnull @.str, i32 noundef 78, ptr noundef nonnull @__func__.aesni_cbc_hmac_sha1_init_key) #7
  tail call void (i32, i32, ptr, ...) @ERR_set_error(i32 noundef 6, i32 noundef 130, ptr noundef null) #7
  br label %23

10:                                               ; preds = %4
  %.not = icmp eq i32 %3, 0
  br i1 %.not, label %13, label %11

11:                                               ; preds = %10
  %12 = tail call i32 @aesni_set_encrypt_key(ptr noundef %1, i32 noundef %7, ptr noundef %5) #7
  br label %15

13:                                               ; preds = %10
  %14 = tail call i32 @aesni_set_decrypt_key(ptr noundef %1, i32 noundef %7, ptr noundef %5) #7
  br label %15

15:                                               ; preds = %13, %11
  %.017 = phi i32 [ %12, %11 ], [ %14, %13 ]
  %16 = getelementptr inbounds nuw i8, ptr %5, i64 244
  %17 = tail call i32 @SHA1_Init(ptr noundef nonnull %16) #7
  %18 = getelementptr inbounds nuw i8, ptr %5, i64 340
  tail call void @llvm.memcpy.p0.p0.i64(ptr noundef nonnull align 4 dereferenceable(96) %18, ptr noundef nonnull align 4 dereferenceable(96) %16, i64 96, i1 false), !tbaa.struct !7
  %19 = getelementptr inbounds nuw i8, ptr %5, i64 436
  tail call void @llvm.memcpy.p0.p0.i64(ptr noundef nonnull align 4 dereferenceable(96) %19, ptr noundef nonnull align 4 dereferenceable(96) %16, i64 96, i1 false), !tbaa.struct !7
  %20 = getelementptr inbounds nuw i8, ptr %5, i64 536
  store i64 -1, ptr %20, align 8, !tbaa !9
  %21 = icmp sgt i32 %.017, -1
  %22 = zext i1 %21 to i32
  br label %23

23:                                               ; preds = %15, %9
  %.0 = phi i32 [ 0, %9 ], [ %22, %15 ]
  ret i32 %.0
}